target datalayout = "e-m:e-p270:32:32-p271:32:32-p272:64:64-i64:64-i128:128-f80:128-n8:16:32:64-S128"
target triple = "x86_64-pc-linux-gnu"

%struct._object = type { %union.anon, ptr }
%union.anon = type { i64 }
%struct.PyVarObject = type { %struct._object, i64 }
%struct._typeobject = type { %struct.PyVarObject, ptr, i64, i64, ptr, i64, ptr, ptr, ptr, ptr, ptr, ptr, ptr, ptr, ptr, ptr, ptr, ptr, ptr, i64, ptr, ptr, ptr, ptr, i64, ptr, ptr, ptr, ptr, ptr, ptr, ptr, ptr, ptr, i64, ptr, ptr, ptr, ptr, ptr, ptr, ptr, ptr, ptr, ptr, ptr, i32, ptr, ptr, i8, i16 }
%struct.PickleState = type { ptr, ptr, ptr, ptr, ptr, ptr, ptr, ptr, ptr, ptr, ptr, ptr, ptr, ptr, ptr, ptr, ptr, ptr, ptr }
%struct.PicklerObject = type { %struct._object, ptr, ptr, ptr, ptr, ptr, ptr, ptr, i64, i64, i32, i32, i32, i64, i64, i32, i32, i32, ptr, ptr }
%struct.anon = type { i32, i32 }
%struct.PyModuleObject = type { %struct._object, ptr, ptr, ptr, ptr, ptr }
%struct._heaptypeobject = type { %struct._typeobject, %struct.PyAsyncMethods, %struct.PyNumberMethods, %struct.PyMappingMethods, %struct.PySequenceMethods, %struct.PyBufferProcs, ptr, ptr, ptr, ptr, ptr, ptr, ptr, %struct._specialization_cache }
%struct.PyAsyncMethods = type { ptr, ptr, ptr, ptr }
%struct.PyNumberMethods = type { ptr, ptr, ptr, ptr, ptr, ptr, ptr, ptr, ptr, ptr, ptr, ptr, ptr, ptr, ptr, ptr, ptr, ptr, ptr, ptr, ptr, ptr, ptr, ptr, ptr, ptr, ptr, ptr, ptr, ptr, ptr, ptr, ptr, ptr, ptr, ptr }
%struct.PyMappingMethods = type { ptr, ptr, ptr }
%struct.PySequenceMethods = type { ptr, ptr, ptr, ptr, ptr, ptr, ptr, ptr, ptr, ptr }
%struct.PyBufferProcs = type { ptr, ptr }
%struct._specialization_cache = type { ptr, i32, ptr }

@_Py_NoneStruct = external global %struct._object, align 8
@.str.161 = private unnamed_addr constant [51 x i8] c"Pickler.__init__() was not called by %s.__init__()\00", align 1

; Function Attrs: alwaysinline nounwind uwtable
define internal i32 @_Py_IsImmortal(ptr noundef %0) #4 {
  %2 = alloca ptr, align 8
  store ptr %0, ptr %2, align 8, !tbaa !3
  %3 = load ptr, ptr %2, align 8, !tbaa !3
  %4 = getelementptr inbounds nuw %struct._object, ptr %3, i32 0, i32 0
  %5 = getelementptr inbounds nuw %struct.anon, ptr %4, i32 0, i32 0
  %6 = load i32, ptr %5, align 8, !tbaa !63
  %7 = icmp slt i32 %6, 0
  %8 = zext i1 %7 to i32
  ret i32 %8
}

; Function Attrs: alwaysinline nounwind uwtable
define internal void @Py_DECREF(ptr noundef %0) #4 {
  %2 = alloca ptr, align 8
  store ptr %0, ptr %2, align 8, !tbaa !3
  %3 = load ptr, ptr %2, align 8, !tbaa !3
  %4 = call i32 @_Py_IsImmortal(ptr noundef %3)
  %5 = icmp ne i32 %4, 0
  br i1 %5, label %6, label %7

6:                                                ; preds = %1
  br label %16

7:                                                ; preds = %1
  %8 = load ptr, ptr %2, align 8, !tbaa !3
  %9 = getelementptr inbounds nuw %struct._object, ptr %8, i32 0, i32 0
  %10 = getelementptr inbounds nuw %struct.anon, ptr %9, i32 0, i32 0
  %11 = load i32, ptr %10, align 8, !tbaa !63
  %12 = add i32 %11, -1
  store i32 %12, ptr %10, align 8, !tbaa !63
  %13 = icmp eq i32 %12, 0
  br i1 %13, label %14, label %16

14:                                               ; preds = %7
  %15 = load ptr, ptr %2, align 8, !tbaa !3
  call void @_Py_Dealloc(ptr noundef %15)
  br label %16

16:                                               ; preds = %6, %14, %7
  ret void
}

; Function Attrs: inlinehint nounwind uwtable
define internal void @Py_XDECREF(ptr noundef %0) #3 {
  %2 = alloca ptr, align 8
  store ptr %0, ptr %2, align 8, !tbaa !3
  %3 = load ptr, ptr %2, align 8, !tbaa !3
  %4 = icmp ne ptr %3, null
  br i1 %4, label %5, label %7

5:                                                ; preds = %1
  %6 = load ptr, ptr %2, align 8, !tbaa !3
  call void @Py_DECREF(ptr noundef %6)
  br label %7

7:                                                ; preds = %5, %1
  ret void
}

; Function Attrs: inlinehint nounwind uwtable
define internal ptr @_PyType_GetModuleState(ptr noundef %0) #3 {
  %2 = alloca ptr, align 8
  %3 = alloca ptr, align 8
  %4 = alloca ptr, align 8
  store ptr %0, ptr %2, align 8, !tbaa !72
  call void @llvm.lifetime.start.p0(i64 8, ptr %3) #10
  %5 = load ptr, ptr %2, align 8, !tbaa !72
  store ptr %5, ptr %3, align 8, !tbaa !224
  call void @llvm.lifetime.start.p0(i64 8, ptr %4) #10
  %6 = load ptr, ptr %3, align 8, !tbaa !224
  %7 = getelementptr inbounds nuw %struct._heaptypeobject, ptr %6, i32 0, i32 10
  %8 = load ptr, ptr %7, align 8, !tbaa !226
  store ptr %8, ptr %4, align 8, !tbaa !8
  %9 = load ptr, ptr %4, align 8, !tbaa !8
  %10 = getelementptr inbounds nuw %struct.PyModuleObject, ptr %9, i32 0, i32 3
  %11 = load ptr, ptr %10, align 8, !tbaa !64
  call void @llvm.lifetime.end.p0(i64 8, ptr %4) #10
  call void @llvm.lifetime.end.p0(i64 8, ptr %3) #10
  ret ptr %11
}

; Function Attrs: nounwind uwtable
define internal i32 @_Pickler_ClearBuffer(ptr noundef %0) #0 {
  %2 = alloca i32, align 4
  %3 = alloca ptr, align 8
  %4 = alloca ptr, align 8
  %5 = alloca ptr, align 8
  store ptr %0, ptr %3, align 8, !tbaa !38
  br label %6

6:                                                ; preds = %1
  call void @llvm.lifetime.start.p0(i64 8, ptr %4) #10
  %7 = load ptr, ptr %3, align 8, !tbaa !38
  %8 = getelementptr inbounds nuw %struct.PicklerObject, ptr %7, i32 0, i32 7
  store ptr %8, ptr %4, align 8, !tbaa !32
  call void @llvm.lifetime.start.p0(i64 8, ptr %5) #10
  %9 = load ptr, ptr %4, align 8, !tbaa !32
  %10 = load ptr, ptr %9, align 8, !tbaa !3
  store ptr %10, ptr %5, align 8, !tbaa !3
  %11 = load ptr, ptr %3, align 8, !tbaa !38
  %12 = getelementptr inbounds nuw %struct.PicklerObject, ptr %11, i32 0, i32 9
  %13 = load i64, ptr %12, align 8, !tbaa !52
  %14 = call ptr @PyBytes_FromStringAndSize(ptr noundef null, i64 noundef %13)
  %15 = load ptr, ptr %4, align 8, !tbaa !32
  store ptr %14, ptr %15, align 8, !tbaa !3
  %16 = load ptr, ptr %5, align 8, !tbaa !3
  call void @Py_XDECREF(ptr noundef %16)
  call void @llvm.lifetime.end.p0(i64 8, ptr %5) #10
  call void @llvm.lifetime.end.p0(i64 8, ptr %4) #10
  br label %17

17:                                               ; preds = %6
  %18 = load ptr, ptr %3, align 8, !tbaa !38
  %19 = getelementptr inbounds nuw %struct.PicklerObject, ptr %18, i32 0, i32 7
  %20 = load ptr, ptr %19, align 8, !tbaa !50
  %21 = icmp eq ptr %20, null
  br i1 %21, label %22, label %23

22:                                               ; preds = %17
  store i32 -1, ptr %2, align 4
  br label %28

23:                                               ; preds = %17
  %24 = load ptr, ptr %3, align 8, !tbaa !38
  %25 = getelementptr inbounds nuw %struct.PicklerObject, ptr %24, i32 0, i32 8
  store i64 0, ptr %25, align 8, !tbaa !51
  %26 = load ptr, ptr %3, align 8, !tbaa !38
  %27 = getelementptr inbounds nuw %struct.PicklerObject, ptr %26, i32 0, i32 13
  store i64 -1, ptr %27, align 8, !tbaa !56
  store i32 0, ptr %2, align 4
  br label %28

28:                                               ; preds = %23, %22
  %29 = load i32, ptr %2, align 4
  ret i32 %29
}

; Function Attrs: inlinehint nounwind uwtable
define internal ptr @_Py_TYPE(ptr noundef %0) #3 {
  %2 = alloca ptr, align 8
  store ptr %0, ptr %2, align 8, !tbaa !3
  %3 = load ptr, ptr %2, align 8, !tbaa !3
  %4 = getelementptr inbounds nuw %struct._object, ptr %3, i32 0, i32 1
  %5 = load ptr, ptr %4, align 8, !tbaa !83
  ret ptr %5
}

; Function Attrs: inlinehint nounwind uwtable
define internal ptr @_Pickle_GetStateByClass(ptr noundef %0) #3 {
  %2 = alloca ptr, align 8
  %3 = alloca ptr, align 8
  store ptr %0, ptr %2, align 8, !tbaa !72
  call void @llvm.lifetime.start.p0(i64 8, ptr %3) #10
  %4 = load ptr, ptr %2, align 8, !tbaa !72
  %5 = call ptr @_PyType_GetModuleState(ptr noundef %4)
  store ptr %5, ptr %3, align 8, !tbaa !8
  %6 = load ptr, ptr %3, align 8, !tbaa !8
  call void @llvm.lifetime.end.p0(i64 8, ptr %3) #10
  ret ptr %6
}

; Function Attrs: nounwind uwtable
define internal ptr @_pickle_Pickler_dump_impl(ptr noundef %0, ptr noundef %1, ptr noundef %2) #0 {
  %4 = alloca ptr, align 8
  %5 = alloca ptr, align 8
  %6 = alloca ptr, align 8
  %7 = alloca ptr, align 8
  %8 = alloca ptr, align 8
  %9 = alloca i32, align 4
  store ptr %0, ptr %5, align 8, !tbaa !38
  store ptr %1, ptr %6, align 8, !tbaa !72
  store ptr %2, ptr %7, align 8, !tbaa !3
  call void @llvm.lifetime.start.p0(i64 8, ptr %8) #10
  %10 = load ptr, ptr %6, align 8, !tbaa !72
  %11 = call ptr @_Pickle_GetStateByClass(ptr noundef %10)
  store ptr %11, ptr %8, align 8, !tbaa !8
  %12 = load ptr, ptr %5, align 8, !tbaa !38
  %13 = getelementptr inbounds nuw %struct.PicklerObject, ptr %12, i32 0, i32 6
  %14 = load ptr, ptr %13, align 8, !tbaa !49
  %15 = icmp eq ptr %14, null
  br i1 %15, label %16, label %25

16:                                               ; preds = %3
  %17 = load ptr, ptr %8, align 8, !tbaa !8
  %18 = getelementptr inbounds nuw %struct.PickleState, ptr %17, i32 0, i32 1
  %19 = load ptr, ptr %18, align 8, !tbaa !14
  %20 = load ptr, ptr %5, align 8, !tbaa !38
  %21 = call ptr @_Py_TYPE(ptr noundef %20)
  %22 = getelementptr inbounds nuw %struct._typeobject, ptr %21, i32 0, i32 1
  %23 = load ptr, ptr %22, align 8, !tbaa !134
  %24 = call ptr (ptr, ptr, ...) @PyErr_Format(ptr noundef %19, ptr noundef @.str.161, ptr noundef %23)
  store ptr null, ptr %4, align 8
  store i32 1, ptr %9, align 4
  br label %43

25:                                               ; preds = %3
  %26 = load ptr, ptr %5, align 8, !tbaa !38
  %27 = call i32 @_Pickler_ClearBuffer(ptr noundef %26)
  %28 = icmp slt i32 %27, 0
  br i1 %28, label %29, label %30

29:                                               ; preds = %25
  store ptr null, ptr %4, align 8
  store i32 1, ptr %9, align 4
  br label %43

30:                                               ; preds = %25
  %31 = load ptr, ptr %8, align 8, !tbaa !8
  %32 = load ptr, ptr %5, align 8, !tbaa !38
  %33 = load ptr, ptr %7, align 8, !tbaa !3
  %34 = call i32 @dump(ptr noundef %31, ptr noundef %32, ptr noundef %33)
  %35 = icmp slt i32 %34, 0
  br i1 %35, label %36, label %37

36:                                               ; preds = %30
  store ptr null, ptr %4, align 8
  store i32 1, ptr %9, align 4
  br label %43

37:                                               ; preds = %30
  %38 = load ptr, ptr %5, align 8, !tbaa !38
  %39 = call i32 @_Pickler_FlushToFile(ptr noundef %38)
  %40 = icmp slt i32 %39, 0
  br i1 %40, label %41, label %42

41:                                               ; preds = %37
  store ptr null, ptr %4, align 8
  store i32 1, ptr %9, align 4
  br label %43

42:                                               ; preds = %37
  store ptr @_Py_NoneStruct, ptr %4, align 8
  store i32 1, ptr %9, align 4
  br label %43

43:                                               ; preds = %42, %41, %36, %29, %16
  call void @llvm.lifetime.end.p0(i64 8, ptr %8) #10
  %44 = load ptr, ptr %4, align 8
  ret ptr %44
}

; Function Attrs: nounwind uwtable
define internal ptr @_pickle_Pickler_dump(ptr noundef %0, ptr noundef %1, ptr noundef %2, i64 noundef %3, ptr noundef %4) #0 {
  %6 = alloca ptr, align 8
  %7 = alloca ptr, align 8
  %8 = alloca ptr, align 8
  %9 = alloca i64, align 8
  %10 = alloca ptr, align 8
  %11 = alloca ptr, align 8
  %12 = alloca [1 x ptr], align 8
  %13 = alloca ptr, align 8
  store ptr %0, ptr %6, align 8, !tbaa !3
  store ptr %1, ptr %7, align 8, !tbaa !72
  store ptr %2, ptr %8, align 8, !tbaa !32
  store i64 %3, ptr %9, align 8, !tbaa !34
  store ptr %4, ptr %10, align 8, !tbaa !3
  call void @llvm.lifetime.start.p0(i64 8, ptr %11) #10
  store ptr null, ptr %11, align 8, !tbaa !3
  call void @llvm.lifetime.start.p0(i64 8, ptr %12) #10
  call void @llvm.lifetime.start.p0(i64 8, ptr %13) #10
  %14 = load ptr, ptr %10, align 8, !tbaa !3
  %15 = icmp eq ptr %14, null
  br i1 %15, label %16, label %27

16:                                               ; preds = %5
  %17 = load i64, ptr %9, align 8, !tbaa !34
  %18 = icmp sle i64 1, %17
  br i1 %18, label %19, label %27

19:                                               ; preds = %16
  %20 = load i64, ptr %9, align 8, !tbaa !34
  %21 = icmp sle i64 %20, 1
  br i1 %21, label %22, label %27

22:                                               ; preds = %19
  %23 = load ptr, ptr %8, align 8, !tbaa !32
  %24 = icmp ne ptr %23, null
  br i1 %24, label %25, label %27

25:                                               ; preds = %22
  %26 = load ptr, ptr %8, align 8, !tbaa !32
  br label %33

27:                                               ; preds = %22, %19, %16, %5
  %28 = load ptr, ptr %8, align 8, !tbaa !32
  %29 = load i64, ptr %9, align 8, !tbaa !34
  %30 = load ptr, ptr %10, align 8, !tbaa !3
  %31 = getelementptr inbounds [1 x ptr], ptr %12, i64 0, i64 0
  %32 = call ptr @_PyArg_UnpackKeywords(ptr noundef %28, i64 noundef %29, ptr noundef null, ptr noundef %30, ptr noundef @_pickle_Pickler_dump._parser, i32 noundef 1, i32 noundef 1, i32 noundef 0, i32 noundef 0, ptr noundef %31)
  br label %33

33:                                               ; preds = %27, %25
  %34 = phi ptr [ %26, %25 ], [ %32, %27 ]
  store ptr %34, ptr %8, align 8, !tbaa !32
  %35 = load ptr, ptr %8, align 8, !tbaa !32
  %36 = icmp ne ptr %35, null
  br i1 %36, label %38, label %37

37:                                               ; preds = %33
  br label %46

38:                                               ; preds = %33
  %39 = load ptr, ptr %8, align 8, !tbaa !32
  %40 = getelementptr ptr, ptr %39, i64 0
  %41 = load ptr, ptr %40, align 8, !tbaa !3
  store ptr %41, ptr %13, align 8, !tbaa !3
  %42 = load ptr, ptr %6, align 8, !tbaa !3
  %43 = load ptr, ptr %7, align 8, !tbaa !72
  %44 = load ptr, ptr %13, align 8, !tbaa !3
  %45 = call ptr @_pickle_Pickler_dump_impl(ptr noundef %42, ptr noundef %43, ptr noundef %44)
  store ptr %45, ptr %11, align 8, !tbaa !3
  br label %46

46:                                               ; preds = %38, %37
  %47 = load ptr, ptr %11, align 8, !tbaa !3
  call void @llvm.lifetime.end.p0(i64 8, ptr %13) #10
  call void @llvm.lifetime.end.p0(i64 8, ptr %12) #10
  call void @llvm.lifetime.end.p0(i64 8, ptr %11) #10
  ret ptr %47
}