; Function Attrs: nounwind uwtable
define internal ptr @_pickle_Pickler_dump(ptr noundef %0, ptr noundef readonly captures(none) %1, ptr noundef %2, i64 noundef %3, ptr noundef %4) #0 {
  %6 = alloca [1 x ptr], align 8
  call void @llvm.lifetime.start.p0(i64 8, ptr nonnull %6) #13
  %7 = icmp eq ptr %4, null
  %8 = icmp eq i64 %3, 1
  %or.cond3 = and i1 %8, %7
  %9 = icmp ne ptr %2, null
  %or.cond5 = and i1 %9, %or.cond3
  br i1 %or.cond5, label %.thread, label %10

10:                                               ; preds = %5
  %11 = call ptr @_PyArg_UnpackKeywords(ptr noundef %2, i64 noundef %3, ptr noundef null, ptr noundef %4, ptr noundef nonnull @_pickle_Pickler_dump._parser, i32 noundef 1, i32 noundef 1, i32 noundef 0, i32 noundef 0, ptr noundef nonnull %6) #13
  %.not = icmp eq ptr %11, null
  br i1 %.not, label %_pickle_Pickler_dump_impl.exit, label %.thread

.thread:                                          ; preds = %5, %10
  %12 = phi ptr [ %11, %10 ], [ %2, %5 ]
  %13 = load ptr, ptr %12, align 8, !tbaa !35
  %14 = getelementptr i8, ptr %1, i64 888
  %.val = load ptr, ptr %14, align 8, !tbaa !204
  %15 = getelementptr i8, ptr %.val, i64 32
  %.val.val = load ptr, ptr %15, align 8, !tbaa !3
  %16 = getelementptr inbounds nuw i8, ptr %0, i64 56
  %17 = load ptr, ptr %16, align 8, !tbaa !41
  %18 = icmp eq ptr %17, null
  br i1 %18, label %19, label %26

19:                                               ; preds = %.thread
  %20 = getelementptr inbounds nuw i8, ptr %.val.val, i64 8
  %21 = load ptr, ptr %20, align 8, !tbaa !14
  %22 = getelementptr i8, ptr %0, i64 8
  %.val.i = load ptr, ptr %22, align 8, !tbaa !50
  %23 = getelementptr inbounds nuw i8, ptr %.val.i, i64 24
  %24 = load ptr, ptr %23, align 8, !tbaa !150
  %25 = call ptr (ptr, ptr, ...) @PyErr_Format(ptr noundef %21, ptr noundef nonnull @.str.161, ptr noundef %24) #13
  br label %_pickle_Pickler_dump_impl.exit

26:                                               ; preds = %.thread
  %27 = getelementptr inbounds nuw i8, ptr %0, i64 64
  %28 = load ptr, ptr %27, align 8, !tbaa !35
  %29 = getelementptr inbounds nuw i8, ptr %0, i64 80
  %30 = load i64, ptr %29, align 8, !tbaa !79
  %31 = call ptr @PyBytes_FromStringAndSize(ptr noundef null, i64 noundef %30) #13
  store ptr %31, ptr %27, align 8, !tbaa !35
  %.not.i.i.i = icmp eq ptr %28, null
  br i1 %.not.i.i.i, label %Py_XDECREF.exit.i.i, label %32

32:                                               ; preds = %26
  %33 = load i32, ptr %28, align 8, !tbaa !42
  %.not.i.i.i.i = icmp sgt i32 %33, -1
  br i1 %.not.i.i.i.i, label %34, label %Py_XDECREF.exit.i.i

34:                                               ; preds = %32
  %35 = add nsw i32 %33, -1
  store i32 %35, ptr %28, align 8, !tbaa !42
  %36 = icmp eq i32 %35, 0
  br i1 %36, label %37, label %Py_XDECREF.exitthread-pre-split.i.i

37:                                               ; preds = %34
  call void @_Py_Dealloc(ptr noundef nonnull %28) #13
  br label %Py_XDECREF.exitthread-pre-split.i.i

Py_XDECREF.exitthread-pre-split.i.i:              ; preds = %37, %34
  %.pr.i.i = load ptr, ptr %27, align 8, !tbaa !44
  br label %Py_XDECREF.exit.i.i

Py_XDECREF.exit.i.i:                              ; preds = %Py_XDECREF.exitthread-pre-split.i.i, %32, %26
  %38 = phi ptr [ %.pr.i.i, %Py_XDECREF.exitthread-pre-split.i.i ], [ %31, %26 ], [ %31, %32 ]
  %39 = icmp eq ptr %38, null
  br i1 %39, label %_pickle_Pickler_dump_impl.exit, label %40

40:                                               ; preds = %Py_XDECREF.exit.i.i
  %41 = getelementptr inbounds nuw i8, ptr %0, i64 72
  store i64 0, ptr %41, align 8, !tbaa !47
  %42 = getelementptr inbounds nuw i8, ptr %0, i64 104
  store i64 -1, ptr %42, align 8, !tbaa !46
  %43 = call fastcc i32 @dump(ptr noundef readonly %.val.val, ptr noundef nonnull %0, ptr noundef %13)
  %44 = icmp slt i32 %43, 0
  br i1 %44, label %_pickle_Pickler_dump_impl.exit, label %45

45:                                               ; preds = %40
  %46 = call fastcc i32 @_Pickler_FlushToFile(ptr noundef nonnull %0)
  %47 = icmp slt i32 %46, 0
  %._Py_NoneStruct.i = select i1 %47, ptr null, ptr @_Py_NoneStruct
  br label %_pickle_Pickler_dump_impl.exit

_pickle_Pickler_dump_impl.exit:                   ; preds = %45, %40, %Py_XDECREF.exit.i.i, %19, %10
  %.0 = phi ptr [ null, %10 ], [ null, %19 ], [ null, %40 ], [ %._Py_NoneStruct.i, %45 ], [ null, %Py_XDECREF.exit.i.i ]
  call void @llvm.lifetime.end.p0(i64 8, ptr nonnull %6) #13
  ret ptr %.0
}